; Function Attrs: nounwind uwtable
define noalias nonnull ptr @l_Lean_Meta_matchMatcherApp_x3f___at___private_Lean_Elab_PreDefinition_Structural_BRecOn_0__Lean_Elab_Structural_replaceRecApps_loop___spec__1___lambda__4___boxed(ptr noundef %0, ptr noundef %1, ptr noundef %2, ptr noundef %3, ptr noundef %4, ptr noundef %5, ptr noundef %6, ptr noundef %7, ptr noundef %8, ptr noundef %9, ptr noundef %10, ptr noundef %11) local_unnamed_addr #0 {
  %13 = tail call ptr @l_Lean_Meta_matchMatcherApp_x3f___at___private_Lean_Elab_PreDefinition_Structural_BRecOn_0__Lean_Elab_Structural_replaceRecApps_loop___spec__1___lambda__4(ptr noundef %0, ptr noundef %1, ptr noundef %2, ptr noundef %3, ptr poison, ptr poison, ptr poison, ptr poison, ptr poison, ptr poison, ptr poison, ptr noundef %11)
  %14 = ptrtoint ptr %10 to i64
  %15 = and i64 %14, 1
  %.not = icmp eq i64 %15, 0
  br i1 %.not, label %16, label %lean_dec.exit27

16:                                               ; preds = %12
  %17 = load i32, ptr %10, align 4, !tbaa !8
  %18 = icmp sgt i32 %17, 1
  br i1 %18, label %19, label %21, !prof !11

19:                                               ; preds = %16
  %20 = add nsw i32 %17, -1
  store i32 %20, ptr %10, align 4, !tbaa !8
  br label %lean_dec.exit27

21:                                               ; preds = %16
  %.not.i = icmp eq i32 %17, 0
  br i1 %.not.i, label %lean_dec.exit27, label %22

22:                                               ; preds = %21
  tail call void @lean_dec_ref_cold(ptr noundef nonnull %10) #6
  br label %lean_dec.exit27

lean_dec.exit27:                                  ; preds = %22, %21, %19, %12
  %23 = ptrtoint ptr %9 to i64
  %24 = and i64 %23, 1
  %.not42 = icmp eq i64 %24, 0
  br i1 %.not42, label %25, label %lean_dec.exit26

25:                                               ; preds = %lean_dec.exit27
  %26 = load i32, ptr %9, align 4, !tbaa !8
  %27 = icmp sgt i32 %26, 1
  br i1 %27, label %28, label %30, !prof !11

28:                                               ; preds = %25
  %29 = add nsw i32 %26, -1
  store i32 %29, ptr %9, align 4, !tbaa !8
  br label %lean_dec.exit26

30:                                               ; preds = %25
  %.not.i28 = icmp eq i32 %26, 0
  br i1 %.not.i28, label %lean_dec.exit26, label %31

31:                                               ; preds = %30
  tail call void @lean_dec_ref_cold(ptr noundef nonnull %9) #6
  br label %lean_dec.exit26

lean_dec.exit26:                                  ; preds = %31, %30, %28, %lean_dec.exit27
  %32 = ptrtoint ptr %8 to i64
  %33 = and i64 %32, 1
  %.not43 = icmp eq i64 %33, 0
  br i1 %.not43, label %34, label %lean_dec.exit25

34:                                               ; preds = %lean_dec.exit26
  %35 = load i32, ptr %8, align 4, !tbaa !8
  %36 = icmp sgt i32 %35, 1
  br i1 %36, label %37, label %39, !prof !11

37:                                               ; preds = %34
  %38 = add nsw i32 %35, -1
  store i32 %38, ptr %8, align 4, !tbaa !8
  br label %lean_dec.exit25

39:                                               ; preds = %34
  %.not.i30 = icmp eq i32 %35, 0
  br i1 %.not.i30, label %lean_dec.exit25, label %40

40:                                               ; preds = %39
  tail call void @lean_dec_ref_cold(ptr noundef nonnull %8) #6
  br label %lean_dec.exit25

lean_dec.exit25:                                  ; preds = %40, %39, %37, %lean_dec.exit26
  %41 = ptrtoint ptr %7 to i64
  %42 = and i64 %41, 1
  %.not44 = icmp eq i64 %42, 0
  br i1 %.not44, label %43, label %lean_dec.exit24

43:                                               ; preds = %lean_dec.exit25
  %44 = load i32, ptr %7, align 4, !tbaa !8
  %45 = icmp sgt i32 %44, 1
  br i1 %45, label %46, label %48, !prof !11

46:                                               ; preds = %43
  %47 = add nsw i32 %44, -1
  store i32 %47, ptr %7, align 4, !tbaa !8
  br label %lean_dec.exit24

48:                                               ; preds = %43
  %.not.i32 = icmp eq i32 %44, 0
  br i1 %.not.i32, label %lean_dec.exit24, label %49

49:                                               ; preds = %48
  tail call void @lean_dec_ref_cold(ptr noundef nonnull %7) #6
  br label %lean_dec.exit24

lean_dec.exit24:                                  ; preds = %49, %48, %46, %lean_dec.exit25
  %50 = ptrtoint ptr %6 to i64
  %51 = and i64 %50, 1
  %.not45 = icmp eq i64 %51, 0
  br i1 %.not45, label %52, label %lean_dec.exit23

52:                                               ; preds = %lean_dec.exit24
  %53 = load i32, ptr %6, align 4, !tbaa !8
  %54 = icmp sgt i32 %53, 1
  br i1 %54, label %55, label %57, !prof !11

55:                                               ; preds = %52
  %56 = add nsw i32 %53, -1
  store i32 %56, ptr %6, align 4, !tbaa !8
  br label %lean_dec.exit23

57:                                               ; preds = %52
  %.not.i34 = icmp eq i32 %53, 0
  br i1 %.not.i34, label %lean_dec.exit23, label %58

58:                                               ; preds = %57
  tail call void @lean_dec_ref_cold(ptr noundef nonnull %6) #6
  br label %lean_dec.exit23

lean_dec.exit23:                                  ; preds = %58, %57, %55, %lean_dec.exit24
  %59 = ptrtoint ptr %5 to i64
  %60 = and i64 %59, 1
  %.not46 = icmp eq i64 %60, 0
  br i1 %.not46, label %61, label %lean_dec.exit22

61:                                               ; preds = %lean_dec.exit23
  %62 = load i32, ptr %5, align 4, !tbaa !8
  %63 = icmp sgt i32 %62, 1
  br i1 %63, label %64, label %66, !prof !11

64:                                               ; preds = %61
  %65 = add nsw i32 %62, -1
  store i32 %65, ptr %5, align 4, !tbaa !8
  br label %lean_dec.exit22

66:                                               ; preds = %61
  %.not.i36 = icmp eq i32 %62, 0
  br i1 %.not.i36, label %lean_dec.exit22, label %67

67:                                               ; preds = %66
  tail call void @lean_dec_ref_cold(ptr noundef nonnull %5) #6
  br label %lean_dec.exit22

lean_dec.exit22:                                  ; preds = %67, %66, %64, %lean_dec.exit23
  %68 = ptrtoint ptr %4 to i64
  %69 = and i64 %68, 1
  %.not47 = icmp eq i64 %69, 0
  br i1 %.not47, label %70, label %lean_dec.exit21

70:                                               ; preds = %lean_dec.exit22
  %71 = load i32, ptr %4, align 4, !tbaa !8
  %72 = icmp sgt i32 %71, 1
  br i1 %72, label %73, label %75, !prof !11

73:                                               ; preds = %70
  %74 = add nsw i32 %71, -1
  store i32 %74, ptr %4, align 4, !tbaa !8
  br label %lean_dec.exit21

75:                                               ; preds = %70
  %.not.i38 = icmp eq i32 %71, 0
  br i1 %.not.i38, label %lean_dec.exit21, label %76

76:                                               ; preds = %75
  tail call void @lean_dec_ref_cold(ptr noundef nonnull %4) #6
  br label %lean_dec.exit21

lean_dec.exit21:                                  ; preds = %76, %75, %73, %lean_dec.exit22
  %77 = ptrtoint ptr %1 to i64
  %78 = and i64 %77, 1
  %.not48 = icmp eq i64 %78, 0
  br i1 %.not48, label %79, label %lean_dec.exit

79:                                               ; preds = %lean_dec.exit21
  %80 = load i32, ptr %1, align 4, !tbaa !8
  %81 = icmp sgt i32 %80, 1
  br i1 %81, label %82, label %84, !prof !11

82:                                               ; preds = %79
  %83 = add nsw i32 %80, -1
  store i32 %83, ptr %1, align 4, !tbaa !8
  br label %lean_dec.exit

84:                                               ; preds = %79
  %.not.i40 = icmp eq i32 %80, 0
  br i1 %.not.i40, label %lean_dec.exit, label %85

85:                                               ; preds = %84
  tail call void @lean_dec_ref_cold(ptr noundef nonnull %1) #6
  br label %lean_dec.exit

lean_dec.exit:                                    ; preds = %85, %84, %82, %lean_dec.exit21
  ret ptr %13
}